target datalayout = "e-m:e-p270:32:32-p271:32:32-p272:64:64-i64:64-i128:128-f80:128-n8:16:32:64-S128"
target triple = "x86_64-pc-linux-gnu"

%"class.cv::face::FacemarkLBF::BBox" = type { double, double, double, double, double, double, double, double }

; Function Attrs: mustprogress nounwind uwtable
define void @_ZN2cv4face11FacemarkLBF4BBoxC2Edddd(ptr noundef nonnull align 8 dereferenceable(64) %0, double noundef %1, double noundef %2, double noundef %3, double noundef %4) unnamed_addr #5 align 2 {
  %6 = alloca ptr, align 8
  %7 = alloca double, align 8
  %8 = alloca double, align 8
  %9 = alloca double, align 8
  %10 = alloca double, align 8
  store ptr %0, ptr %6, align 8, !tbaa !225
  store double %1, ptr %7, align 8, !tbaa !191
  store double %2, ptr %8, align 8, !tbaa !191
  store double %3, ptr %9, align 8, !tbaa !191
  store double %4, ptr %10, align 8, !tbaa !191
  %11 = load ptr, ptr %6, align 8
  %12 = load double, ptr %7, align 8, !tbaa !191
  %13 = getelementptr inbounds nuw %"class.cv::face::FacemarkLBF::BBox", ptr %11, i32 0, i32 0
  store double %12, ptr %13, align 8, !tbaa !203
  %14 = load double, ptr %8, align 8, !tbaa !191
  %15 = getelementptr inbounds nuw %"class.cv::face::FacemarkLBF::BBox", ptr %11, i32 0, i32 1
  store double %14, ptr %15, align 8, !tbaa !206
  %16 = load double, ptr %9, align 8, !tbaa !191
  %17 = getelementptr inbounds nuw %"class.cv::face::FacemarkLBF::BBox", ptr %11, i32 0, i32 6
  store double %16, ptr %17, align 8, !tbaa !205
  %18 = load double, ptr %10, align 8, !tbaa !191
  %19 = getelementptr inbounds nuw %"class.cv::face::FacemarkLBF::BBox", ptr %11, i32 0, i32 7
  store double %18, ptr %19, align 8, !tbaa !207
  %20 = getelementptr inbounds nuw %"class.cv::face::FacemarkLBF::BBox", ptr %11, i32 0, i32 0
  %21 = load double, ptr %20, align 8, !tbaa !203
  %22 = load double, ptr %9, align 8, !tbaa !191
  %23 = fdiv double %22, 2.000000e+00
  %24 = fadd double %21, %23
  %25 = getelementptr inbounds nuw %"class.cv::face::FacemarkLBF::BBox", ptr %11, i32 0, i32 2
  store double %24, ptr %25, align 8, !tbaa !227
  %26 = getelementptr inbounds nuw %"class.cv::face::FacemarkLBF::BBox", ptr %11, i32 0, i32 1
  %27 = load double, ptr %26, align 8, !tbaa !206
  %28 = load double, ptr %10, align 8, !tbaa !191
  %29 = fdiv double %28, 2.000000e+00
  %30 = fadd double %27, %29
  %31 = getelementptr inbounds nuw %"class.cv::face::FacemarkLBF::BBox", ptr %11, i32 0, i32 3
  store double %30, ptr %31, align 8, !tbaa !229
  %32 = load double, ptr %9, align 8, !tbaa !191
  %33 = fdiv double %32, 2.000000e+00
  %34 = getelementptr inbounds nuw %"class.cv::face::FacemarkLBF::BBox", ptr %11, i32 0, i32 4
  store double %33, ptr %34, align 8, !tbaa !226
  %35 = load double, ptr %10, align 8, !tbaa !191
  %36 = fdiv double %35, 2.000000e+00
  %37 = getelementptr inbounds nuw %"class.cv::face::FacemarkLBF::BBox", ptr %11, i32 0, i32 5
  store double %36, ptr %37, align 8, !tbaa !228
  ret void
}