; Function Attrs: mustprogress nofree norecurse nosync nounwind willreturn memory(argmem: write) uwtable
define void @_ZN2cv4face11FacemarkLBF4BBoxC2Edddd(ptr noundef nonnull writeonly align 8 captures(none) dereferenceable(64) initializes((0, 64)) %0, double noundef %1, double noundef %2, double noundef %3, double noundef %4) unnamed_addr #10 align 2 {
  store double %1, ptr %0, align 8, !tbaa !235
  %6 = getelementptr inbounds nuw i8, ptr %0, i64 8
  store double %2, ptr %6, align 8, !tbaa !237
  %7 = getelementptr inbounds nuw i8, ptr %0, i64 48
  store double %3, ptr %7, align 8, !tbaa !236
  %8 = getelementptr inbounds nuw i8, ptr %0, i64 56
  store double %4, ptr %8, align 8, !tbaa !238
  %9 = fmul double %3, 5.000000e-01
  %10 = fadd double %1, %9
  %11 = getelementptr inbounds nuw i8, ptr %0, i64 16
  store double %10, ptr %11, align 8, !tbaa !217
  %12 = fmul double %4, 5.000000e-01
  %13 = fadd double %2, %12
  %14 = getelementptr inbounds nuw i8, ptr %0, i64 24
  store double %13, ptr %14, align 8, !tbaa !220
  %15 = getelementptr inbounds nuw i8, ptr %0, i64 32
  store double %9, ptr %15, align 8, !tbaa !219
  %16 = getelementptr inbounds nuw i8, ptr %0, i64 40
  store double %12, ptr %16, align 8, !tbaa !221
  ret void
}